; Function Attrs: mustprogress uwtable
define internal void @_ZN7rocksdb12_GLOBAL__N_115PosixFileSystem16GetTestDirectoryERKNS_9IOOptionsEPNSt7__cxx1112basic_stringIcSt11char_traitsIcESaIcEEEPNS_14IODebugContextE(ptr noalias sret(%"class.rocksdb::IOStatus") align 8 %agg.result, ptr noundef nonnull align 8 dereferenceable(57) %this, ptr nocapture nonnull readnone align 8 %0, ptr noundef %result, ptr nocapture readnone %1) unnamed_addr #5 align 2 personality ptr @__gxx_personality_v0 {
entry:
  %buf = alloca [100 x i8], align 16
  %opts = alloca %"struct.rocksdb::IOOptions", align 8
  %call = tail call ptr @getenv(ptr noundef nonnull @.str.87) #29
  %tobool.not = icmp eq ptr %call, null
  br i1 %tobool.not, label %if.else, label %land.lhs.true

land.lhs.true:                                    ; preds = %entry
  %2 = load i8, ptr %call, align 1
  %cmp.not = icmp eq i8 %2, 0
  br i1 %cmp.not, label %if.else, label %if.then

if.then:                                          ; preds = %land.lhs.true
  %call3 = tail call noundef nonnull align 8 dereferenceable(32) ptr @_ZNSt7__cxx1112basic_stringIcSt11char_traitsIcESaIcEEaSEPKc(ptr noundef nonnull align 8 dereferenceable(32) %result, ptr noundef nonnull %call)
  br label %if.end

if.else:                                          ; preds = %land.lhs.true, %entry
  %call4 = tail call i32 @geteuid() #29
  %call5 = call i32 (ptr, i64, ptr, ...) @snprintf(ptr noundef nonnull dereferenceable(1) %buf, i64 noundef 100, ptr noundef nonnull @.str.88, i32 noundef %call4) #29
  %call7 = call noundef nonnull align 8 dereferenceable(32) ptr @_ZNSt7__cxx1112basic_stringIcSt11char_traitsIcESaIcEEaSEPKc(ptr noundef nonnull align 8 dereferenceable(32) %result, ptr noundef nonnull %buf)
  br label %if.end

if.end:                                           ; preds = %if.else, %if.then
  store i64 0, ptr %opts, align 8
  %prio.i.i = getelementptr inbounds i8, ptr %opts, i64 8
  store i8 0, ptr %prio.i.i, align 8
  %rate_limiter_priority.i.i = getelementptr inbounds i8, ptr %opts, i64 12
  store i32 4, ptr %rate_limiter_priority.i.i, align 4
  %type.i.i = getelementptr inbounds i8, ptr %opts, i64 16
  store i8 7, ptr %type.i.i, align 8
  %property_bag.i.i = getelementptr inbounds i8, ptr %opts, i64 24
  %_M_single_bucket.i.i.i.i = getelementptr inbounds i8, ptr %opts, i64 72
  store ptr %_M_single_bucket.i.i.i.i, ptr %property_bag.i.i, align 8
  %_M_bucket_count.i.i.i.i = getelementptr inbounds i8, ptr %opts, i64 32
  store i64 1, ptr %_M_bucket_count.i.i.i.i, align 8
  %_M_before_begin.i.i.i.i = getelementptr inbounds i8, ptr %opts, i64 40
  %_M_rehash_policy.i.i.i.i = getelementptr inbounds i8, ptr %opts, i64 56
  call void @llvm.memset.p0.i64(ptr noundef nonnull align 8 dereferenceable(16) %_M_before_begin.i.i.i.i, i8 0, i64 16, i1 false)
  store float 1.000000e+00, ptr %_M_rehash_policy.i.i.i.i, align 8
  %_M_next_resize.i.i.i.i.i = getelementptr inbounds i8, ptr %opts, i64 64
  %io_activity.i.i = getelementptr inbounds i8, ptr %opts, i64 82
  call void @llvm.memset.p0.i64(ptr noundef nonnull align 8 dereferenceable(18) %_M_next_resize.i.i.i.i.i, i8 0, i64 18, i1 false)
  store i8 10, ptr %io_activity.i.i, align 2
  %vtable = load ptr, ptr %this, align 8
  %vfn = getelementptr inbounds i8, ptr %vtable, i64 280
  %3 = load ptr, ptr %vfn, align 8
  invoke void %3(ptr sret(%"class.rocksdb::IOStatus") align 8 %agg.result, ptr noundef nonnull align 8 dereferenceable(57) %this, ptr noundef nonnull align 8 dereferenceable(32) %result, ptr noundef nonnull align 8 dereferenceable(83) %opts, ptr noundef null)
          to label %invoke.cont unwind label %lpad

invoke.cont:                                      ; preds = %if.end
  %4 = load ptr, ptr %_M_before_begin.i.i.i.i, align 8
  %tobool.not3.i.i.i.i.i = icmp eq ptr %4, null
  br i1 %tobool.not3.i.i.i.i.i, label %_ZNSt10_HashtableINSt7__cxx1112basic_stringIcSt11char_traitsIcESaIcEEESt4pairIKS5_S5_ESaIS8_ENSt8__detail10_Select1stESt8equal_toIS5_ESt4hashIS5_ENSA_18_Mod_range_hashingENSA_20_Default_ranged_hashENSA_20_Prime_rehash_policyENSA_17_Hashtable_traitsILb1ELb0ELb1EEEE5clearEv.exit.i.i.i, label %while.body.i.i.i.i.i

while.body.i.i.i.i.i:                             ; preds = %invoke.cont, %while.body.i.i.i.i.i
  %__n.addr.04.i.i.i.i.i = phi ptr [ %5, %while.body.i.i.i.i.i ], [ %4, %invoke.cont ]
  %5 = load ptr, ptr %__n.addr.04.i.i.i.i.i, align 8
  %add.ptr.i.i.i.i.i.i = getelementptr inbounds i8, ptr %__n.addr.04.i.i.i.i.i, i64 8
  %second.i.i.i.i.i.i.i.i.i = getelementptr inbounds i8, ptr %__n.addr.04.i.i.i.i.i, i64 40
  call void @_ZNSt7__cxx1112basic_stringIcSt11char_traitsIcESaIcEED1Ev(ptr noundef nonnull align 8 dereferenceable(32) %second.i.i.i.i.i.i.i.i.i) #29
  call void @_ZNSt7__cxx1112basic_stringIcSt11char_traitsIcESaIcEED1Ev(ptr noundef nonnull align 8 dereferenceable(32) %add.ptr.i.i.i.i.i.i) #29
  call void @_ZdlPv(ptr noundef nonnull %__n.addr.04.i.i.i.i.i) #32
  %tobool.not.i.i.i.i.i = icmp eq ptr %5, null
  br i1 %tobool.not.i.i.i.i.i, label %_ZNSt10_HashtableINSt7__cxx1112basic_stringIcSt11char_traitsIcESaIcEEESt4pairIKS5_S5_ESaIS8_ENSt8__detail10_Select1stESt8equal_toIS5_ESt4hashIS5_ENSA_18_Mod_range_hashingENSA_20_Default_ranged_hashENSA_20_Prime_rehash_policyENSA_17_Hashtable_traitsILb1ELb0ELb1EEEE5clearEv.exit.i.i.i, label %while.body.i.i.i.i.i, !llvm.loop !38

_ZNSt10_HashtableINSt7__cxx1112basic_stringIcSt11char_traitsIcESaIcEEESt4pairIKS5_S5_ESaIS8_ENSt8__detail10_Select1stESt8equal_toIS5_ESt4hashIS5_ENSA_18_Mod_range_hashingENSA_20_Default_ranged_hashENSA_20_Prime_rehash_policyENSA_17_Hashtable_traitsILb1ELb0ELb1EEEE5clearEv.exit.i.i.i: ; preds = %while.body.i.i.i.i.i, %invoke.cont
  %6 = load ptr, ptr %property_bag.i.i, align 8
  %7 = load i64, ptr %_M_bucket_count.i.i.i.i, align 8
  %mul.i.i.i.i = shl i64 %7, 3
  call void @llvm.memset.p0.i64(ptr align 8 %6, i8 0, i64 %mul.i.i.i.i, i1 false)
  call void @llvm.memset.p0.i64(ptr noundef nonnull align 8 dereferenceable(16) %_M_before_begin.i.i.i.i, i8 0, i64 16, i1 false)
  %8 = load ptr, ptr %property_bag.i.i, align 8
  %cmp.i.i.i.i.i.i = icmp eq ptr %_M_single_bucket.i.i.i.i, %8
  br i1 %cmp.i.i.i.i.i.i, label %_ZN7rocksdb9IOOptionsD2Ev.exit, label %if.end.i.i.i.i.i

if.end.i.i.i.i.i:                                 ; preds = %_ZNSt10_HashtableINSt7__cxx1112basic_stringIcSt11char_traitsIcESaIcEEESt4pairIKS5_S5_ESaIS8_ENSt8__detail10_Select1stESt8equal_toIS5_ESt4hashIS5_ENSA_18_Mod_range_hashingENSA_20_Default_ranged_hashENSA_20_Prime_rehash_policyENSA_17_Hashtable_traitsILb1ELb0ELb1EEEE5clearEv.exit.i.i.i
  call void @_ZdlPv(ptr noundef %8) #32
  br label %_ZN7rocksdb9IOOptionsD2Ev.exit

_ZN7rocksdb9IOOptionsD2Ev.exit:                   ; preds = %_ZNSt10_HashtableINSt7__cxx1112basic_stringIcSt11char_traitsIcESaIcEEESt4pairIKS5_S5_ESaIS8_ENSt8__detail10_Select1stESt8equal_toIS5_ESt4hashIS5_ENSA_18_Mod_range_hashingENSA_20_Default_ranged_hashENSA_20_Prime_rehash_policyENSA_17_Hashtable_traitsILb1ELb0ELb1EEEE5clearEv.exit.i.i.i, %if.end.i.i.i.i.i
  ret void

lpad:                                             ; preds = %if.end
  %9 = landingpad { ptr, i32 }
          cleanup
  call void @_ZN7rocksdb9IOOptionsD2Ev(ptr noundef nonnull align 8 dereferenceable(83) %opts) #29
  resume { ptr, i32 } %9
}